; Function Attrs: nounwind uwtable
define internal i32 @pmix_bfrop_open(i32 noundef %0) #0 {
  store i8 1, ptr getelementptr inbounds nuw (i8, ptr @pmix_bfrops_globals, i64 272), align 8, !tbaa !19
  %2 = load i32, ptr @pmix_class_init_epoch, align 4, !tbaa !20
  %3 = load i32, ptr getelementptr inbounds nuw (i8, ptr @pmix_list_t_class, i64 32), align 8, !tbaa !21
  %.not = icmp eq i32 %2, %3
  br i1 %.not, label %5, label %4

4:                                                ; preds = %1
  tail call void @pmix_class_initialize(ptr noundef nonnull @pmix_list_t_class) #11
  br label %5

5:                                                ; preds = %4, %1
  store ptr @pmix_list_t_class, ptr getelementptr inbounds nuw (i8, ptr @pmix_bfrops_globals, i64 40), align 8, !tbaa !24
  store i32 1, ptr getelementptr inbounds nuw (i8, ptr @pmix_bfrops_globals, i64 48), align 8, !tbaa !25
  tail call void @llvm.memset.p0.i64(ptr noundef nonnull align 8 dereferenceable(64) getelementptr inbounds nuw (i8, ptr @pmix_bfrops_globals, i64 56), i8 0, i64 64, i1 false)
  %6 = load ptr, ptr getelementptr inbounds nuw (i8, ptr @pmix_list_t_class, i64 40), align 8, !tbaa !26
  %7 = load ptr, ptr %6, align 8, !tbaa !27
  %.not1.i = icmp eq ptr %7, null
  br i1 %.not1.i, label %pmix_obj_run_constructors.exit, label %.lr.ph.i

.lr.ph.i:                                         ; preds = %5, %.lr.ph.i
  %8 = phi ptr [ %10, %.lr.ph.i ], [ %7, %5 ]
  %.02.i = phi ptr [ %9, %.lr.ph.i ], [ %6, %5 ]
  tail call void %8(ptr noundef nonnull @pmix_bfrops_globals) #11
  %9 = getelementptr inbounds nuw i8, ptr %.02.i, i64 8
  %10 = load ptr, ptr %9, align 8, !tbaa !27
  %.not.i = icmp eq ptr %10, null
  br i1 %.not.i, label %pmix_obj_run_constructors.exit, label %.lr.ph.i, !llvm.loop !28

pmix_obj_run_constructors.exit:                   ; preds = %.lr.ph.i, %5
  %11 = tail call i32 @pmix_mca_base_framework_components_open(ptr noundef nonnull @pmix_bfrops_base_framework, i32 noundef %0) #11
  %12 = load i32, ptr getelementptr inbounds nuw (i8, ptr @pmix_bfrops_base_framework, i64 76), align 4, !tbaa !30
  store i32 %12, ptr @pmix_bfrops_base_output, align 4, !tbaa !20
  ret i32 %11
}